target datalayout = "e-m:e-p270:32:32-p271:32:32-p272:64:64-i64:64-i128:128-f80:128-n8:16:32:64-S128"
target triple = "x86_64-unknown-linux-gnu"

%class.btCollisionWorld = type <{ ptr, %class.btAlignedObjectArray, ptr, %struct.btDispatcherInfo, ptr, ptr, i8, [7 x i8] }>
%class.btAlignedObjectArray = type <{ %class.btAlignedAllocator, [3 x i8], i32, i32, [4 x i8], ptr, i8, [7 x i8] }>
%class.btAlignedAllocator = type { i8 }
%struct.btDispatcherInfo = type <{ float, i32, i32, float, i8, [7 x i8], ptr, i8, i8, i8, i8, float, i8, [3 x i8], float, i8, [7 x i8] }>
%class.btCollisionObject = type <{ ptr, %class.btTransform, %class.btTransform, %class.btVector3, %class.btVector3, %class.btVector3, i32, float, ptr, ptr, ptr, ptr, i32, i32, i32, i32, i32, float, float, float, float, float, float, float, i32, [4 x i8], ptr, i32, i32, i32, float, float, float, i32, [4 x i8], %class.btAlignedObjectArray.0, i32, %class.btVector3, [4 x i8] }>
%class.btTransform = type { %class.btMatrix3x3, %class.btVector3 }
%class.btMatrix3x3 = type { [3 x %class.btVector3] }
%class.btAlignedObjectArray.0 = type <{ %class.btAlignedAllocator.1, [3 x i8], i32, i32, [4 x i8], ptr, i8, [7 x i8] }>
%class.btAlignedAllocator.1 = type { i8 }
%class.btVector3 = type { [4 x float] }

; Function Attrs: mustprogress nounwind uwtable
define linkonce_odr dso_local void @_ZN20btAlignedObjectArrayIP17btCollisionObjectE13removeAtIndexEi(ptr noundef nonnull align 8 dereferenceable(25) %this, i32 noundef %index) #1 comdat align 2 {
entry:
  %this.addr = alloca ptr, align 8
  %index.addr = alloca i32, align 4
  store ptr %this, ptr %this.addr, align 8
  store i32 %index, ptr %index.addr, align 4
  %this1 = load ptr, ptr %this.addr, align 8
  %0 = load i32, ptr %index.addr, align 4
  %call = call noundef i32 @_ZNK20btAlignedObjectArrayIP17btCollisionObjectE4sizeEv(ptr noundef nonnull align 8 dereferenceable(25) %this1)
  %cmp = icmp slt i32 %0, %call
  br i1 %cmp, label %if.then, label %if.end

if.then:                                          ; preds = %entry
  %1 = load i32, ptr %index.addr, align 4
  %call2 = call noundef i32 @_ZNK20btAlignedObjectArrayIP17btCollisionObjectE4sizeEv(ptr noundef nonnull align 8 dereferenceable(25) %this1)
  %sub = sub nsw i32 %call2, 1
  call void @_ZN20btAlignedObjectArrayIP17btCollisionObjectE4swapEii(ptr noundef nonnull align 8 dereferenceable(25) %this1, i32 noundef %1, i32 noundef %sub)
  call void @_ZN20btAlignedObjectArrayIP17btCollisionObjectE8pop_backEv(ptr noundef nonnull align 8 dereferenceable(25) %this1)
  br label %if.end

if.end:                                           ; preds = %if.then, %entry
  ret void
}

; Function Attrs: mustprogress nounwind uwtable
define linkonce_odr dso_local noundef i32 @_ZNK20btAlignedObjectArrayIP17btCollisionObjectE16findLinearSearchERKS1_(ptr noundef nonnull align 8 dereferenceable(25) %this, ptr noundef nonnull align 8 dereferenceable(8) %key) #1 comdat align 2 {
entry:
  %this.addr = alloca ptr, align 8
  %key.addr = alloca ptr, align 8
  %index = alloca i32, align 4
  %i = alloca i32, align 4
  store ptr %this, ptr %this.addr, align 8
  store ptr %key, ptr %key.addr, align 8
  %this1 = load ptr, ptr %this.addr, align 8
  %call = call noundef i32 @_ZNK20btAlignedObjectArrayIP17btCollisionObjectE4sizeEv(ptr noundef nonnull align 8 dereferenceable(25) %this1)
  store i32 %call, ptr %index, align 4
  store i32 0, ptr %i, align 4
  br label %for.cond

for.cond:                                         ; preds = %for.inc, %entry
  %0 = load i32, ptr %i, align 4
  %call2 = call noundef i32 @_ZNK20btAlignedObjectArrayIP17btCollisionObjectE4sizeEv(ptr noundef nonnull align 8 dereferenceable(25) %this1)
  %cmp = icmp slt i32 %0, %call2
  br i1 %cmp, label %for.body, label %for.end

for.body:                                         ; preds = %for.cond
  %m_data = getelementptr inbounds %class.btAlignedObjectArray, ptr %this1, i32 0, i32 5
  %1 = load ptr, ptr %m_data, align 8
  %2 = load i32, ptr %i, align 4
  %idxprom = sext i32 %2 to i64
  %arrayidx = getelementptr inbounds ptr, ptr %1, i64 %idxprom
  %3 = load ptr, ptr %arrayidx, align 8
  %4 = load ptr, ptr %key.addr, align 8
  %5 = load ptr, ptr %4, align 8
  %cmp3 = icmp eq ptr %3, %5
  br i1 %cmp3, label %if.then, label %if.end

if.then:                                          ; preds = %for.body
  %6 = load i32, ptr %i, align 4
  store i32 %6, ptr %index, align 4
  br label %for.end

if.end:                                           ; preds = %for.body
  br label %for.inc

for.inc:                                          ; preds = %if.end
  %7 = load i32, ptr %i, align 4
  %inc = add nsw i32 %7, 1
  store i32 %inc, ptr %i, align 4
  br label %for.cond, !llvm.loop !38

for.end:                                          ; preds = %if.then, %for.cond
  %8 = load i32, ptr %index, align 4
  ret i32 %8
}

; Function Attrs: mustprogress uwtable
define linkonce_odr dso_local void @_ZN20btAlignedObjectArrayIP17btCollisionObjectE6removeERKS1_(ptr noundef nonnull align 8 dereferenceable(25) %this, ptr noundef nonnull align 8 dereferenceable(8) %key) #2 comdat align 2 {
entry:
  %this.addr = alloca ptr, align 8
  %key.addr = alloca ptr, align 8
  %findIndex = alloca i32, align 4
  store ptr %this, ptr %this.addr, align 8
  store ptr %key, ptr %key.addr, align 8
  %this1 = load ptr, ptr %this.addr, align 8
  %0 = load ptr, ptr %key.addr, align 8
  %call = call noundef i32 @_ZNK20btAlignedObjectArrayIP17btCollisionObjectE16findLinearSearchERKS1_(ptr noundef nonnull align 8 dereferenceable(25) %this1, ptr noundef nonnull align 8 dereferenceable(8) %0)
  store i32 %call, ptr %findIndex, align 4
  %1 = load i32, ptr %findIndex, align 4
  call void @_ZN20btAlignedObjectArrayIP17btCollisionObjectE13removeAtIndexEi(ptr noundef nonnull align 8 dereferenceable(25) %this1, i32 noundef %1)
  ret void
}

; Function Attrs: mustprogress nounwind uwtable
define linkonce_odr dso_local void @_ZN17btCollisionObject18setWorldArrayIndexEi(ptr noundef nonnull align 8 dereferenceable(372) %this, i32 noundef %ix) #1 comdat align 2 {
entry:
  %this.addr = alloca ptr, align 8
  %ix.addr = alloca i32, align 4
  store ptr %this, ptr %this.addr, align 8
  store i32 %ix, ptr %ix.addr, align 4
  %this1 = load ptr, ptr %this.addr, align 8
  %0 = load i32, ptr %ix.addr, align 4
  %m_worldArrayIndex = getelementptr inbounds %class.btCollisionObject, ptr %this1, i32 0, i32 15
  store i32 %0, ptr %m_worldArrayIndex, align 4
  ret void
}

; Function Attrs: mustprogress nounwind uwtable
define linkonce_odr dso_local noundef nonnull align 8 dereferenceable(8) ptr @_ZN20btAlignedObjectArrayIP17btCollisionObjectEixEi(ptr noundef nonnull align 8 dereferenceable(25) %this, i32 noundef %n) #1 comdat align 2 {
entry:
  %this.addr = alloca ptr, align 8
  %n.addr = alloca i32, align 4
  store ptr %this, ptr %this.addr, align 8
  store i32 %n, ptr %n.addr, align 4
  %this1 = load ptr, ptr %this.addr, align 8
  %m_data = getelementptr inbounds %class.btAlignedObjectArray, ptr %this1, i32 0, i32 5
  %0 = load ptr, ptr %m_data, align 8
  %1 = load i32, ptr %n.addr, align 4
  %idxprom = sext i32 %1 to i64
  %arrayidx = getelementptr inbounds ptr, ptr %0, i64 %idxprom
  ret ptr %arrayidx
}

; Function Attrs: mustprogress nounwind uwtable
define linkonce_odr dso_local void @_ZN20btAlignedObjectArrayIP17btCollisionObjectE8pop_backEv(ptr noundef nonnull align 8 dereferenceable(25) %this) #1 comdat align 2 {
entry:
  %this.addr = alloca ptr, align 8
  store ptr %this, ptr %this.addr, align 8
  %this1 = load ptr, ptr %this.addr, align 8
  %m_size = getelementptr inbounds %class.btAlignedObjectArray, ptr %this1, i32 0, i32 2
  %0 = load i32, ptr %m_size, align 4
  %dec = add nsw i32 %0, -1
  store i32 %dec, ptr %m_size, align 4
  ret void
}

; Function Attrs: mustprogress nounwind uwtable
define linkonce_odr dso_local void @_ZN20btAlignedObjectArrayIP17btCollisionObjectE4swapEii(ptr noundef nonnull align 8 dereferenceable(25) %this, i32 noundef %index0, i32 noundef %index1) #1 comdat align 2 {
entry:
  %this.addr = alloca ptr, align 8
  %index0.addr = alloca i32, align 4
  %index1.addr = alloca i32, align 4
  %temp = alloca ptr, align 8
  store ptr %this, ptr %this.addr, align 8
  store i32 %index0, ptr %index0.addr, align 4
  store i32 %index1, ptr %index1.addr, align 4
  %this1 = load ptr, ptr %this.addr, align 8
  %m_data = getelementptr inbounds %class.btAlignedObjectArray, ptr %this1, i32 0, i32 5
  %0 = load ptr, ptr %m_data, align 8
  %1 = load i32, ptr %index0.addr, align 4
  %idxprom = sext i32 %1 to i64
  %arrayidx = getelementptr inbounds ptr, ptr %0, i64 %idxprom
  %2 = load ptr, ptr %arrayidx, align 8
  store ptr %2, ptr %temp, align 8
  %m_data2 = getelementptr inbounds %class.btAlignedObjectArray, ptr %this1, i32 0, i32 5
  %3 = load ptr, ptr %m_data2, align 8
  %4 = load i32, ptr %index1.addr, align 4
  %idxprom3 = sext i32 %4 to i64
  %arrayidx4 = getelementptr inbounds ptr, ptr %3, i64 %idxprom3
  %5 = load ptr, ptr %arrayidx4, align 8
  %m_data5 = getelementptr inbounds %class.btAlignedObjectArray, ptr %this1, i32 0, i32 5
  %6 = load ptr, ptr %m_data5, align 8
  %7 = load i32, ptr %index0.addr, align 4
  %idxprom6 = sext i32 %7 to i64
  %arrayidx7 = getelementptr inbounds ptr, ptr %6, i64 %idxprom6
  store ptr %5, ptr %arrayidx7, align 8
  %8 = load ptr, ptr %temp, align 8
  %m_data8 = getelementptr inbounds %class.btAlignedObjectArray, ptr %this1, i32 0, i32 5
  %9 = load ptr, ptr %m_data8, align 8
  %10 = load i32, ptr %index1.addr, align 4
  %idxprom9 = sext i32 %10 to i64
  %arrayidx10 = getelementptr inbounds ptr, ptr %9, i64 %idxprom9
  store ptr %8, ptr %arrayidx10, align 8
  ret void
}

; Function Attrs: mustprogress nounwind uwtable
define linkonce_odr dso_local noundef i32 @_ZNK20btAlignedObjectArrayIP17btCollisionObjectE4sizeEv(ptr noundef nonnull align 8 dereferenceable(25) %this) #1 comdat align 2 {
entry:
  %this.addr = alloca ptr, align 8
  store ptr %this, ptr %this.addr, align 8
  %this1 = load ptr, ptr %this.addr, align 8
  %m_size = getelementptr inbounds %class.btAlignedObjectArray, ptr %this1, i32 0, i32 2
  %0 = load i32, ptr %m_size, align 4
  ret i32 %0
}

; Function Attrs: mustprogress nounwind uwtable
define linkonce_odr dso_local noundef i32 @_ZNK17btCollisionObject18getWorldArrayIndexEv(ptr noundef nonnull align 8 dereferenceable(372) %this) #1 comdat align 2 {
entry:
  %this.addr = alloca ptr, align 8
  store ptr %this, ptr %this.addr, align 8
  %this1 = load ptr, ptr %this.addr, align 8
  %m_worldArrayIndex = getelementptr inbounds %class.btCollisionObject, ptr %this1, i32 0, i32 15
  %0 = load i32, ptr %m_worldArrayIndex, align 4
  ret i32 %0
}

; Function Attrs: mustprogress nounwind uwtable
define linkonce_odr dso_local void @_ZN17btCollisionObject19setBroadphaseHandleEP17btBroadphaseProxy(ptr noundef nonnull align 8 dereferenceable(372) %this, ptr noundef %handle) #1 comdat align 2 {
entry:
  %this.addr = alloca ptr, align 8
  %handle.addr = alloca ptr, align 8
  store ptr %this, ptr %this.addr, align 8
  store ptr %handle, ptr %handle.addr, align 8
  %this1 = load ptr, ptr %this.addr, align 8
  %0 = load ptr, ptr %handle.addr, align 8
  %m_broadphaseHandle = getelementptr inbounds %class.btCollisionObject, ptr %this1, i32 0, i32 8
  store ptr %0, ptr %m_broadphaseHandle, align 8
  ret void
}

; Function Attrs: mustprogress nounwind uwtable
define linkonce_odr dso_local noundef ptr @_ZN16btCollisionWorld13getBroadphaseEv(ptr noundef nonnull align 8 dereferenceable(121) %this) #1 comdat align 2 {
entry:
  %this.addr = alloca ptr, align 8
  store ptr %this, ptr %this.addr, align 8
  %this1 = load ptr, ptr %this.addr, align 8
  %m_broadphasePairCache = getelementptr inbounds %class.btCollisionWorld, ptr %this1, i32 0, i32 4
  %0 = load ptr, ptr %m_broadphasePairCache, align 8
  ret ptr %0
}

; Function Attrs: mustprogress nounwind uwtable
define linkonce_odr dso_local noundef ptr @_ZN17btCollisionObject19getBroadphaseHandleEv(ptr noundef nonnull align 8 dereferenceable(372) %this) #1 comdat align 2 {
entry:
  %this.addr = alloca ptr, align 8
  store ptr %this, ptr %this.addr, align 8
  %this1 = load ptr, ptr %this.addr, align 8
  %m_broadphaseHandle = getelementptr inbounds %class.btCollisionObject, ptr %this1, i32 0, i32 8
  %0 = load ptr, ptr %m_broadphaseHandle, align 8
  ret ptr %0
}

; Function Attrs: mustprogress uwtable
define dso_local void @_ZN16btCollisionWorld21removeCollisionObjectEP17btCollisionObject(ptr noundef nonnull align 8 dereferenceable(121) %this, ptr noundef %collisionObject) unnamed_addr #2 align 2 {
entry:
  %this.addr = alloca ptr, align 8
  %collisionObject.addr = alloca ptr, align 8
  %bp = alloca ptr, align 8
  %iObj = alloca i32, align 4
  store ptr %this, ptr %this.addr, align 8
  store ptr %collisionObject, ptr %collisionObject.addr, align 8
  %this1 = load ptr, ptr %this.addr, align 8
  %0 = load ptr, ptr %collisionObject.addr, align 8
  %call = call noundef ptr @_ZN17btCollisionObject19getBroadphaseHandleEv(ptr noundef nonnull align 8 dereferenceable(372) %0)
  store ptr %call, ptr %bp, align 8
  %1 = load ptr, ptr %bp, align 8
  %tobool = icmp ne ptr %1, null
  br i1 %tobool, label %if.then, label %if.end

if.then:                                          ; preds = %entry
  %call2 = call noundef ptr @_ZN16btCollisionWorld13getBroadphaseEv(ptr noundef nonnull align 8 dereferenceable(121) %this1)
  %vtable = load ptr, ptr %call2, align 8
  %vfn = getelementptr inbounds ptr, ptr %vtable, i64 9
  %2 = load ptr, ptr %vfn, align 8
  %call3 = call noundef ptr %2(ptr noundef nonnull align 8 dereferenceable(8) %call2)
  %3 = load ptr, ptr %bp, align 8
  %m_dispatcher1 = getelementptr inbounds %class.btCollisionWorld, ptr %this1, i32 0, i32 2
  %4 = load ptr, ptr %m_dispatcher1, align 8
  %vtable4 = load ptr, ptr %call3, align 8
  %vfn5 = getelementptr inbounds ptr, ptr %vtable4, i64 12
  %5 = load ptr, ptr %vfn5, align 8
  call void %5(ptr noundef nonnull align 8 dereferenceable(8) %call3, ptr noundef %3, ptr noundef %4)
  %call6 = call noundef ptr @_ZN16btCollisionWorld13getBroadphaseEv(ptr noundef nonnull align 8 dereferenceable(121) %this1)
  %6 = load ptr, ptr %bp, align 8
  %m_dispatcher17 = getelementptr inbounds %class.btCollisionWorld, ptr %this1, i32 0, i32 2
  %7 = load ptr, ptr %m_dispatcher17, align 8
  %vtable8 = load ptr, ptr %call6, align 8
  %vfn9 = getelementptr inbounds ptr, ptr %vtable8, i64 3
  %8 = load ptr, ptr %vfn9, align 8
  call void %8(ptr noundef nonnull align 8 dereferenceable(8) %call6, ptr noundef %6, ptr noundef %7)
  %9 = load ptr, ptr %collisionObject.addr, align 8
  call void @_ZN17btCollisionObject19setBroadphaseHandleEP17btBroadphaseProxy(ptr noundef nonnull align 8 dereferenceable(372) %9, ptr noundef null)
  br label %if.end

if.end:                                           ; preds = %if.then, %entry
  %10 = load ptr, ptr %collisionObject.addr, align 8
  %call10 = call noundef i32 @_ZNK17btCollisionObject18getWorldArrayIndexEv(ptr noundef nonnull align 8 dereferenceable(372) %10)
  store i32 %call10, ptr %iObj, align 4
  %11 = load i32, ptr %iObj, align 4
  %cmp = icmp sge i32 %11, 0
  br i1 %cmp, label %land.lhs.true, label %if.else

land.lhs.true:                                    ; preds = %if.end
  %12 = load i32, ptr %iObj, align 4
  %m_collisionObjects = getelementptr inbounds %class.btCollisionWorld, ptr %this1, i32 0, i32 1
  %call11 = call noundef i32 @_ZNK20btAlignedObjectArrayIP17btCollisionObjectE4sizeEv(ptr noundef nonnull align 8 dereferenceable(25) %m_collisionObjects)
  %cmp12 = icmp slt i32 %12, %call11
  br i1 %cmp12, label %if.then13, label %if.else

if.then13:                                        ; preds = %land.lhs.true
  %m_collisionObjects14 = getelementptr inbounds %class.btCollisionWorld, ptr %this1, i32 0, i32 1
  %13 = load i32, ptr %iObj, align 4
  %m_collisionObjects15 = getelementptr inbounds %class.btCollisionWorld, ptr %this1, i32 0, i32 1
  %call16 = call noundef i32 @_ZNK20btAlignedObjectArrayIP17btCollisionObjectE4sizeEv(ptr noundef nonnull align 8 dereferenceable(25) %m_collisionObjects15)
  %sub = sub nsw i32 %call16, 1
  call void @_ZN20btAlignedObjectArrayIP17btCollisionObjectE4swapEii(ptr noundef nonnull align 8 dereferenceable(25) %m_collisionObjects14, i32 noundef %13, i32 noundef %sub)
  %m_collisionObjects17 = getelementptr inbounds %class.btCollisionWorld, ptr %this1, i32 0, i32 1
  call void @_ZN20btAlignedObjectArrayIP17btCollisionObjectE8pop_backEv(ptr noundef nonnull align 8 dereferenceable(25) %m_collisionObjects17)
  %14 = load i32, ptr %iObj, align 4
  %m_collisionObjects18 = getelementptr inbounds %class.btCollisionWorld, ptr %this1, i32 0, i32 1
  %call19 = call noundef i32 @_ZNK20btAlignedObjectArrayIP17btCollisionObjectE4sizeEv(ptr noundef nonnull align 8 dereferenceable(25) %m_collisionObjects18)
  %cmp20 = icmp slt i32 %14, %call19
  br i1 %cmp20, label %if.then21, label %if.end24

if.then21:                                        ; preds = %if.then13
  %m_collisionObjects22 = getelementptr inbounds %class.btCollisionWorld, ptr %this1, i32 0, i32 1
  %15 = load i32, ptr %iObj, align 4
  %call23 = call noundef nonnull align 8 dereferenceable(8) ptr @_ZN20btAlignedObjectArrayIP17btCollisionObjectEixEi(ptr noundef nonnull align 8 dereferenceable(25) %m_collisionObjects22, i32 noundef %15)
  %16 = load ptr, ptr %call23, align 8
  %17 = load i32, ptr %iObj, align 4
  call void @_ZN17btCollisionObject18setWorldArrayIndexEi(ptr noundef nonnull align 8 dereferenceable(372) %16, i32 noundef %17)
  br label %if.end24

if.end24:                                         ; preds = %if.then21, %if.then13
  br label %if.end26

if.else:                                          ; preds = %land.lhs.true, %if.end
  %m_collisionObjects25 = getelementptr inbounds %class.btCollisionWorld, ptr %this1, i32 0, i32 1
  call void @_ZN20btAlignedObjectArrayIP17btCollisionObjectE6removeERKS1_(ptr noundef nonnull align 8 dereferenceable(25) %m_collisionObjects25, ptr noundef nonnull align 8 dereferenceable(8) %collisionObject.addr)
  br label %if.end26

if.end26:                                         ; preds = %if.else, %if.end24
  %18 = load ptr, ptr %collisionObject.addr, align 8
  call void @_ZN17btCollisionObject18setWorldArrayIndexEi(ptr noundef nonnull align 8 dereferenceable(372) %18, i32 noundef -1)
  ret void
}