; Function Attrs: mustprogress uwtable
define dso_local void @_ZN16btCollisionWorld21removeCollisionObjectEP17btCollisionObject(ptr nocapture noundef nonnull align 8 dereferenceable(121) %this, ptr noundef %collisionObject) unnamed_addr #4 align 2 {
entry:
  %m_broadphaseHandle.i = getelementptr inbounds i8, ptr %collisionObject, i64 192
  %0 = load ptr, ptr %m_broadphaseHandle.i, align 8
  %tobool.not = icmp eq ptr %0, null
  br i1 %tobool.not, label %if.end, label %if.then

if.then:                                          ; preds = %entry
  %m_broadphasePairCache.i = getelementptr inbounds i8, ptr %this, i64 104
  %1 = load ptr, ptr %m_broadphasePairCache.i, align 8
  %vtable = load ptr, ptr %1, align 8
  %vfn = getelementptr inbounds i8, ptr %vtable, i64 72
  %2 = load ptr, ptr %vfn, align 8
  %call3 = tail call noundef ptr %2(ptr noundef nonnull align 8 dereferenceable(8) %1)
  %m_dispatcher1 = getelementptr inbounds i8, ptr %this, i64 40
  %3 = load ptr, ptr %m_dispatcher1, align 8
  %vtable4 = load ptr, ptr %call3, align 8
  %vfn5 = getelementptr inbounds i8, ptr %vtable4, i64 96
  %4 = load ptr, ptr %vfn5, align 8
  tail call void %4(ptr noundef nonnull align 8 dereferenceable(8) %call3, ptr noundef nonnull %0, ptr noundef %3)
  %5 = load ptr, ptr %m_broadphasePairCache.i, align 8
  %6 = load ptr, ptr %m_dispatcher1, align 8
  %vtable8 = load ptr, ptr %5, align 8
  %vfn9 = getelementptr inbounds i8, ptr %vtable8, i64 24
  %7 = load ptr, ptr %vfn9, align 8
  tail call void %7(ptr noundef nonnull align 8 dereferenceable(8) %5, ptr noundef nonnull %0, ptr noundef %6)
  store ptr null, ptr %m_broadphaseHandle.i, align 8
  br label %if.end

if.end:                                           ; preds = %if.then, %entry
  %m_worldArrayIndex.i = getelementptr inbounds i8, ptr %collisionObject, i64 236
  %8 = load i32, ptr %m_worldArrayIndex.i, align 4
  %cmp = icmp sgt i32 %8, -1
  %m_size.i = getelementptr inbounds i8, ptr %this, i64 12
  %9 = load i32, ptr %m_size.i, align 4
  %cmp12 = icmp slt i32 %8, %9
  %or.cond = select i1 %cmp, i1 %cmp12, i1 false
  br i1 %or.cond, label %if.then13, label %if.else

if.then13:                                        ; preds = %if.end
  %sub = add nsw i32 %9, -1
  %m_data.i = getelementptr inbounds i8, ptr %this, i64 24
  %10 = load ptr, ptr %m_data.i, align 8
  %idxprom.i = zext nneg i32 %8 to i64
  %arrayidx.i = getelementptr inbounds ptr, ptr %10, i64 %idxprom.i
  %11 = load ptr, ptr %arrayidx.i, align 8
  %idxprom3.i = zext nneg i32 %sub to i64
  %arrayidx4.i = getelementptr inbounds ptr, ptr %10, i64 %idxprom3.i
  %12 = load ptr, ptr %arrayidx4.i, align 8
  store ptr %12, ptr %arrayidx.i, align 8
  %13 = load ptr, ptr %m_data.i, align 8
  %arrayidx10.i = getelementptr inbounds ptr, ptr %13, i64 %idxprom3.i
  store ptr %11, ptr %arrayidx10.i, align 8
  %14 = load i32, ptr %m_size.i, align 4
  %dec.i = add nsw i32 %14, -1
  store i32 %dec.i, ptr %m_size.i, align 4
  %cmp20 = icmp slt i32 %8, %dec.i
  br i1 %cmp20, label %if.then21, label %if.end26

if.then21:                                        ; preds = %if.then13
  %15 = load ptr, ptr %m_data.i, align 8
  %arrayidx.i15 = getelementptr inbounds ptr, ptr %15, i64 %idxprom.i
  %16 = load ptr, ptr %arrayidx.i15, align 8
  %m_worldArrayIndex.i16 = getelementptr inbounds i8, ptr %16, i64 236
  store i32 %8, ptr %m_worldArrayIndex.i16, align 4
  br label %if.end26

if.else:                                          ; preds = %if.end
  %m_size.i.i.i = getelementptr inbounds i8, ptr %this, i64 12
  %cmp5.i.i = icmp sgt i32 %9, 0
  br i1 %cmp5.i.i, label %for.body.lr.ph.i.i, label %if.end26

for.body.lr.ph.i.i:                               ; preds = %if.else
  %m_data.i.i = getelementptr inbounds i8, ptr %this, i64 24
  %17 = load ptr, ptr %m_data.i.i, align 8
  %wide.trip.count.i.i = zext nneg i32 %9 to i64
  br label %for.body.i.i

for.body.i.i:                                     ; preds = %for.inc.i.i, %for.body.lr.ph.i.i
  %indvars.iv.i.i = phi i64 [ 0, %for.body.lr.ph.i.i ], [ %indvars.iv.next.i.i, %for.inc.i.i ]
  %arrayidx.i.i = getelementptr inbounds ptr, ptr %17, i64 %indvars.iv.i.i
  %18 = load ptr, ptr %arrayidx.i.i, align 8
  %cmp3.i.i = icmp eq ptr %18, %collisionObject
  br i1 %cmp3.i.i, label %_ZNK20btAlignedObjectArrayIP17btCollisionObjectE16findLinearSearchERKS1_.exit.i, label %for.inc.i.i

for.inc.i.i:                                      ; preds = %for.body.i.i
  %indvars.iv.next.i.i = add nuw nsw i64 %indvars.iv.i.i, 1
  %exitcond.not.i.i = icmp eq i64 %indvars.iv.next.i.i, %wide.trip.count.i.i
  br i1 %exitcond.not.i.i, label %if.end26, label %for.body.i.i, !llvm.loop !9

_ZNK20btAlignedObjectArrayIP17btCollisionObjectE16findLinearSearchERKS1_.exit.i: ; preds = %for.body.i.i
  %19 = trunc i64 %indvars.iv.i.i to i32
  %cmp.i.i = icmp sgt i32 %9, %19
  br i1 %cmp.i.i, label %if.then.i.i, label %if.end26

if.then.i.i:                                      ; preds = %_ZNK20btAlignedObjectArrayIP17btCollisionObjectE16findLinearSearchERKS1_.exit.i
  %sub.i.i = add nsw i32 %9, -1
  %sext.i = shl i64 %indvars.iv.i.i, 32
  %idxprom.i.i.i = ashr exact i64 %sext.i, 32
  %arrayidx.i.i.i = getelementptr inbounds ptr, ptr %17, i64 %idxprom.i.i.i
  %20 = load ptr, ptr %arrayidx.i.i.i, align 8
  %idxprom3.i.i.i = sext i32 %sub.i.i to i64
  %arrayidx4.i.i.i = getelementptr inbounds ptr, ptr %17, i64 %idxprom3.i.i.i
  %21 = load ptr, ptr %arrayidx4.i.i.i, align 8
  store ptr %21, ptr %arrayidx.i.i.i, align 8
  %22 = load ptr, ptr %m_data.i.i, align 8
  %arrayidx10.i.i.i = getelementptr inbounds ptr, ptr %22, i64 %idxprom3.i.i.i
  store ptr %20, ptr %arrayidx10.i.i.i, align 8
  %23 = load i32, ptr %m_size.i.i.i, align 4
  %dec.i.i.i = add nsw i32 %23, -1
  store i32 %dec.i.i.i, ptr %m_size.i.i.i, align 4
  br label %if.end26

if.end26:                                         ; preds = %for.inc.i.i, %if.then.i.i, %_ZNK20btAlignedObjectArrayIP17btCollisionObjectE16findLinearSearchERKS1_.exit.i, %if.else, %if.then13, %if.then21
  store i32 -1, ptr %m_worldArrayIndex.i, align 4
  ret void
}